target datalayout = "e-m:e-p270:32:32-p271:32:32-p272:64:64-i64:64-i128:128-f80:128-n8:16:32:64-S128"
target triple = "x86_64-pc-linux-gnu"

%"class.std::__shared_count" = type { ptr }
%"class.std::shared_ptr.5" = type { %"class.std::__shared_ptr.6" }
%"class.std::__shared_ptr.6" = type { ptr, %"class.std::__shared_count" }
%"class.std::shared_ptr.67" = type { %"class.std::__shared_ptr.68" }
%"class.std::__shared_ptr.68" = type { ptr, %"class.std::__shared_count" }

; Function Attrs: mustprogress uwtable
define void @_ZNK5arrow9ArraySpan7ToArrayEv(ptr dead_on_unwind noalias writable sret(%"class.std::shared_ptr.67") align 8 %0, ptr noundef nonnull align 8 dereferenceable(128) %1) #0 align 2 personality ptr @__gxx_personality_v0 {
  %3 = alloca ptr, align 8
  %4 = alloca ptr, align 8
  %5 = alloca %"class.std::shared_ptr.5", align 8
  %6 = alloca ptr, align 8
  %7 = alloca i32, align 4
  store ptr %0, ptr %3, align 8
  store ptr %1, ptr %4, align 8, !tbaa !81
  %8 = load ptr, ptr %4, align 8
  call void @llvm.lifetime.start.p0(i64 16, ptr %5) #20
  call void @_ZNK5arrow9ArraySpan11ToArrayDataEv(ptr dead_on_unwind writable sret(%"class.std::shared_ptr.5") align 8 %5, ptr noundef nonnull align 8 dereferenceable(128) %8)
  invoke void @_ZN5arrow9MakeArrayERKSt10shared_ptrINS_9ArrayDataEE(ptr dead_on_unwind writable sret(%"class.std::shared_ptr.67") align 8 %0, ptr noundef nonnull align 8 dereferenceable(16) %5)
          to label %9 unwind label %10

9:                                                ; preds = %2
  call void @_ZNSt12__shared_ptrIN5arrow9ArrayDataELN9__gnu_cxx12_Lock_policyE2EED2Ev(ptr noundef nonnull align 8 dereferenceable(16) %5) #20
  call void @llvm.lifetime.end.p0(i64 16, ptr %5) #20
  ret void

10:                                               ; preds = %2
  %11 = landingpad { ptr, i32 }
          cleanup
  %12 = extractvalue { ptr, i32 } %11, 0
  store ptr %12, ptr %6, align 8
  %13 = extractvalue { ptr, i32 } %11, 1
  store i32 %13, ptr %7, align 4
  call void @_ZNSt12__shared_ptrIN5arrow9ArrayDataELN9__gnu_cxx12_Lock_policyE2EED2Ev(ptr noundef nonnull align 8 dereferenceable(16) %5) #20
  call void @llvm.lifetime.end.p0(i64 16, ptr %5) #20
  br label %14

14:                                               ; preds = %10
  %15 = load ptr, ptr %6, align 8
  %16 = load i32, ptr %7, align 4
  %17 = insertvalue { ptr, i32 } poison, ptr %15, 0
  %18 = insertvalue { ptr, i32 } %17, i32 %16, 1
  resume { ptr, i32 } %18
}